target datalayout = "e-m:e-p270:32:32-p271:32:32-p272:64:64-i64:64-i128:128-f80:128-n8:16:32:64-S128"
target triple = "x86_64-pc-linux-gnu"

%struct.pmix_list_t = type { %struct.pmix_object_t, %struct.pmix_list_item_t, i64 }
%struct.pmix_object_t = type { %union.pthread_mutex_t, ptr, i32, %struct.pmix_tma }
%union.pthread_mutex_t = type { %struct.__pthread_mutex_s }
%struct.__pthread_mutex_s = type { i32, i32, i32, i32, i32, i16, i16, %struct.__pthread_internal_list }
%struct.__pthread_internal_list = type { ptr, ptr }
%struct.pmix_tma = type { ptr, ptr, ptr, ptr, ptr, ptr, ptr, ptr }
%struct.pmix_list_item_t = type { %struct.pmix_object_t, ptr, ptr, i32 }
%struct.prte_rmaps_base_t = type { %struct.pmix_list_t, i16, i16, ptr, i8, i8, ptr, ptr, ptr, ptr, i8 }
%struct.prte_node_t = type { %struct.pmix_list_item_t, i32, ptr, ptr, ptr, ptr, ptr, ptr, i16, ptr, i16, i8, i32, i32, i32, i32, ptr, i8, %struct.pmix_list_t }
%struct.prte_topology_t = type { %struct.pmix_object_t, i32, ptr, ptr }
%struct.prte_rmaps_options_t = type { i16, i8, i32, i32, ptr, ptr, i8, i8, i8, i8, i8, i16, i8, i8, i16, i32, i32, i32, i32, i16, i8, i32, i32, i32, i16, i8, i32, i16, ptr, ptr }
%struct.hwloc_obj = type { i32, ptr, i32, ptr, i64, ptr, i32, i32, ptr, ptr, ptr, i32, ptr, ptr, i32, ptr, ptr, ptr, i32, i32, ptr, i32, ptr, i32, ptr, ptr, ptr, ptr, ptr, ptr, i32, ptr, i64 }

@prte_rmaps_base = external global %struct.prte_rmaps_base_t, align 8

; Function Attrs: inlinehint nounwind willreturn memory(read) uwtable
define internal i32 @hwloc_get_nbobjs_inside_cpuset_by_depth(ptr noundef %0, ptr noundef %1, i32 noundef %2) #7 {
  %4 = alloca i32, align 4
  %5 = alloca ptr, align 8
  %6 = alloca ptr, align 8
  %7 = alloca i32, align 4
  %8 = alloca ptr, align 8
  %9 = alloca i32, align 4
  %10 = alloca i32, align 4
  store ptr %0, ptr %5, align 8, !tbaa !138
  store ptr %1, ptr %6, align 8, !tbaa !139
  store i32 %2, ptr %7, align 4, !tbaa !11
  call void @llvm.lifetime.start.p0(i64 8, ptr %8) #13
  %11 = load ptr, ptr %5, align 8, !tbaa !138
  %12 = load i32, ptr %7, align 4, !tbaa !11
  %13 = call ptr @hwloc_get_obj_by_depth(ptr noundef %11, i32 noundef %12, i32 noundef 0) #16
  store ptr %13, ptr %8, align 8, !tbaa !113
  call void @llvm.lifetime.start.p0(i64 4, ptr %9) #13
  store i32 0, ptr %9, align 4, !tbaa !11
  %14 = load ptr, ptr %8, align 8, !tbaa !113
  %15 = icmp ne ptr %14, null
  br i1 %15, label %17, label %16

16:                                               ; preds = %3
  store i32 0, ptr %4, align 4
  store i32 1, ptr %10, align 4
  br label %43

17:                                               ; preds = %3
  br label %18

18:                                               ; preds = %37, %17
  %19 = load ptr, ptr %8, align 8, !tbaa !113
  %20 = icmp ne ptr %19, null
  br i1 %20, label %21, label %41

21:                                               ; preds = %18
  %22 = load ptr, ptr %8, align 8, !tbaa !113
  %23 = getelementptr inbounds nuw %struct.hwloc_obj, ptr %22, i32 0, i32 25
  %24 = load ptr, ptr %23, align 8, !tbaa !132
  %25 = call i32 @hwloc_bitmap_iszero(ptr noundef %24) #16
  %26 = icmp ne i32 %25, 0
  br i1 %26, label %37, label %27

27:                                               ; preds = %21
  %28 = load ptr, ptr %8, align 8, !tbaa !113
  %29 = getelementptr inbounds nuw %struct.hwloc_obj, ptr %28, i32 0, i32 25
  %30 = load ptr, ptr %29, align 8, !tbaa !132
  %31 = load ptr, ptr %6, align 8, !tbaa !139
  %32 = call i32 @hwloc_bitmap_isincluded(ptr noundef %30, ptr noundef %31) #16
  %33 = icmp ne i32 %32, 0
  br i1 %33, label %34, label %37

34:                                               ; preds = %27
  %35 = load i32, ptr %9, align 4, !tbaa !11
  %36 = add i32 %35, 1
  store i32 %36, ptr %9, align 4, !tbaa !11
  br label %37

37:                                               ; preds = %34, %27, %21
  %38 = load ptr, ptr %8, align 8, !tbaa !113
  %39 = getelementptr inbounds nuw %struct.hwloc_obj, ptr %38, i32 0, i32 8
  %40 = load ptr, ptr %39, align 8, !tbaa !177
  store ptr %40, ptr %8, align 8, !tbaa !113
  br label %18, !llvm.loop !178

41:                                               ; preds = %18
  %42 = load i32, ptr %9, align 4, !tbaa !11
  store i32 %42, ptr %4, align 4
  store i32 1, ptr %10, align 4
  br label %43

43:                                               ; preds = %41, %16
  call void @llvm.lifetime.end.p0(i64 4, ptr %9) #13
  call void @llvm.lifetime.end.p0(i64 8, ptr %8) #13
  %44 = load i32, ptr %4, align 4
  ret i32 %44
}

; Function Attrs: inlinehint nounwind willreturn memory(read) uwtable
define internal i32 @hwloc_get_nbobjs_inside_cpuset_by_type(ptr noundef %0, ptr noundef %1, i32 noundef %2) #7 {
  %4 = alloca i32, align 4
  %5 = alloca ptr, align 8
  %6 = alloca ptr, align 8
  %7 = alloca i32, align 4
  %8 = alloca i32, align 4
  %9 = alloca i32, align 4
  store ptr %0, ptr %5, align 8, !tbaa !138
  store ptr %1, ptr %6, align 8, !tbaa !139
  store i32 %2, ptr %7, align 4, !tbaa !11
  call void @llvm.lifetime.start.p0(i64 4, ptr %8) #13
  %10 = load ptr, ptr %5, align 8, !tbaa !138
  %11 = load i32, ptr %7, align 4, !tbaa !11
  %12 = call i32 @hwloc_get_type_depth(ptr noundef %10, i32 noundef %11)
  store i32 %12, ptr %8, align 4, !tbaa !11
  %13 = load i32, ptr %8, align 4, !tbaa !11
  %14 = icmp eq i32 %13, -1
  br i1 %14, label %15, label %16

15:                                               ; preds = %3
  store i32 0, ptr %4, align 4
  store i32 1, ptr %9, align 4
  br label %25

16:                                               ; preds = %3
  %17 = load i32, ptr %8, align 4, !tbaa !11
  %18 = icmp eq i32 %17, -2
  br i1 %18, label %19, label %20

19:                                               ; preds = %16
  store i32 -1, ptr %4, align 4
  store i32 1, ptr %9, align 4
  br label %25

20:                                               ; preds = %16
  %21 = load ptr, ptr %5, align 8, !tbaa !138
  %22 = load ptr, ptr %6, align 8, !tbaa !139
  %23 = load i32, ptr %8, align 4, !tbaa !11
  %24 = call i32 @hwloc_get_nbobjs_inside_cpuset_by_depth(ptr noundef %21, ptr noundef %22, i32 noundef %23) #16
  store i32 %24, ptr %4, align 4
  store i32 1, ptr %9, align 4
  br label %25

25:                                               ; preds = %20, %19, %15
  call void @llvm.lifetime.end.p0(i64 4, ptr %8) #13
  %26 = load i32, ptr %4, align 4
  ret i32 %26
}

; Function Attrs: nounwind uwtable
define i32 @prte_rmaps_base_get_ncpus(ptr noundef %0, ptr noundef %1, ptr noundef %2) #0 {
  %4 = alloca ptr, align 8
  %5 = alloca ptr, align 8
  %6 = alloca ptr, align 8
  %7 = alloca i32, align 4
  store ptr %0, ptr %4, align 8, !tbaa !3
  store ptr %1, ptr %5, align 8, !tbaa !113
  store ptr %2, ptr %6, align 8, !tbaa !3
  call void @llvm.lifetime.start.p0(i64 4, ptr %7) #13
  %8 = load ptr, ptr %6, align 8, !tbaa !3
  %9 = getelementptr inbounds nuw %struct.prte_rmaps_options_t, ptr %8, i32 0, i32 5
  %10 = load ptr, ptr %9, align 8, !tbaa !128
  %11 = icmp eq ptr null, %10
  br i1 %11, label %12, label %18

12:                                               ; preds = %3
  %13 = load ptr, ptr getelementptr inbounds nuw (%struct.prte_rmaps_base_t, ptr @prte_rmaps_base, i32 0, i32 7), align 8, !tbaa !130
  %14 = load ptr, ptr %4, align 8, !tbaa !3
  %15 = getelementptr inbounds nuw %struct.prte_node_t, ptr %14, i32 0, i32 6
  %16 = load ptr, ptr %15, align 8, !tbaa !85
  %17 = call i32 @hwloc_bitmap_copy(ptr noundef %13, ptr noundef %16)
  br label %27

18:                                               ; preds = %3
  %19 = load ptr, ptr getelementptr inbounds nuw (%struct.prte_rmaps_base_t, ptr @prte_rmaps_base, i32 0, i32 7), align 8, !tbaa !130
  %20 = load ptr, ptr %4, align 8, !tbaa !3
  %21 = getelementptr inbounds nuw %struct.prte_node_t, ptr %20, i32 0, i32 6
  %22 = load ptr, ptr %21, align 8, !tbaa !85
  %23 = load ptr, ptr %6, align 8, !tbaa !3
  %24 = getelementptr inbounds nuw %struct.prte_rmaps_options_t, ptr %23, i32 0, i32 5
  %25 = load ptr, ptr %24, align 8, !tbaa !128
  %26 = call i32 @hwloc_bitmap_and(ptr noundef %19, ptr noundef %22, ptr noundef %25)
  br label %27

27:                                               ; preds = %18, %12
  %28 = load ptr, ptr %5, align 8, !tbaa !113
  %29 = icmp ne ptr null, %28
  br i1 %29, label %30, label %37

30:                                               ; preds = %27
  %31 = load ptr, ptr getelementptr inbounds nuw (%struct.prte_rmaps_base_t, ptr @prte_rmaps_base, i32 0, i32 7), align 8, !tbaa !130
  %32 = load ptr, ptr getelementptr inbounds nuw (%struct.prte_rmaps_base_t, ptr @prte_rmaps_base, i32 0, i32 7), align 8, !tbaa !130
  %33 = load ptr, ptr %5, align 8, !tbaa !113
  %34 = getelementptr inbounds nuw %struct.hwloc_obj, ptr %33, i32 0, i32 25
  %35 = load ptr, ptr %34, align 8, !tbaa !132
  %36 = call i32 @hwloc_bitmap_and(ptr noundef %31, ptr noundef %32, ptr noundef %35)
  br label %37

37:                                               ; preds = %30, %27
  %38 = load ptr, ptr %6, align 8, !tbaa !3
  %39 = getelementptr inbounds nuw %struct.prte_rmaps_options_t, ptr %38, i32 0, i32 1
  %40 = load i8, ptr %39, align 2, !tbaa !137, !range !15, !noundef !16
  %41 = trunc i8 %40 to i1
  br i1 %41, label %42, label %45

42:                                               ; preds = %37
  %43 = load ptr, ptr getelementptr inbounds nuw (%struct.prte_rmaps_base_t, ptr @prte_rmaps_base, i32 0, i32 7), align 8, !tbaa !130
  %44 = call i32 @hwloc_bitmap_weight(ptr noundef %43) #16
  store i32 %44, ptr %7, align 4, !tbaa !11
  br label %53

45:                                               ; preds = %37
  %46 = load ptr, ptr %4, align 8, !tbaa !3
  %47 = getelementptr inbounds nuw %struct.prte_node_t, ptr %46, i32 0, i32 16
  %48 = load ptr, ptr %47, align 8, !tbaa !80
  %49 = getelementptr inbounds nuw %struct.prte_topology_t, ptr %48, i32 0, i32 2
  %50 = load ptr, ptr %49, align 8, !tbaa !81
  %51 = load ptr, ptr getelementptr inbounds nuw (%struct.prte_rmaps_base_t, ptr @prte_rmaps_base, i32 0, i32 7), align 8, !tbaa !130
  %52 = call i32 @hwloc_get_nbobjs_inside_cpuset_by_type(ptr noundef %50, ptr noundef %51, i32 noundef 2) #16
  store i32 %52, ptr %7, align 4, !tbaa !11
  br label %53

53:                                               ; preds = %45, %42
  %54 = load i32, ptr %7, align 4, !tbaa !11
  call void @llvm.lifetime.end.p0(i64 4, ptr %7) #13
  ret i32 %54
}