; Function Attrs: nounwind uwtable
define i32 @prte_rmaps_base_get_ncpus(ptr noundef readonly captures(none) %0, ptr noundef readonly captures(address_is_null) %1, ptr noundef readonly captures(none) %2) local_unnamed_addr #0 {
  %4 = getelementptr inbounds nuw i8, ptr %2, i64 24
  %5 = load ptr, ptr %4, align 8, !tbaa !107
  %6 = icmp eq ptr %5, null
  %7 = load ptr, ptr getelementptr inbounds nuw (i8, ptr @prte_rmaps_base, i64 304), align 8, !tbaa !109
  %8 = getelementptr inbounds nuw i8, ptr %0, i64 184
  %9 = load ptr, ptr %8, align 8, !tbaa !83
  br i1 %6, label %10, label %12

10:                                               ; preds = %3
  %11 = tail call i32 @hwloc_bitmap_copy(ptr noundef %7, ptr noundef %9) #11
  br label %14

12:                                               ; preds = %3
  %13 = tail call i32 @hwloc_bitmap_and(ptr noundef %7, ptr noundef %9, ptr noundef nonnull %5) #11
  br label %14

14:                                               ; preds = %12, %10
  %.not = icmp eq ptr %1, null
  br i1 %.not, label %20, label %15

15:                                               ; preds = %14
  %16 = load ptr, ptr getelementptr inbounds nuw (i8, ptr @prte_rmaps_base, i64 304), align 8, !tbaa !109
  %17 = getelementptr inbounds nuw i8, ptr %1, i64 184
  %18 = load ptr, ptr %17, align 8, !tbaa !111
  %19 = tail call i32 @hwloc_bitmap_and(ptr noundef %16, ptr noundef %16, ptr noundef %18) #11
  br label %20

20:                                               ; preds = %15, %14
  %21 = getelementptr inbounds nuw i8, ptr %2, i64 2
  %22 = load i8, ptr %21, align 2, !tbaa !116, !range !27, !noundef !28
  %23 = trunc nuw i8 %22 to i1
  br i1 %23, label %24, label %27

24:                                               ; preds = %20
  %25 = load ptr, ptr getelementptr inbounds nuw (i8, ptr @prte_rmaps_base, i64 304), align 8, !tbaa !109
  %26 = tail call i32 @hwloc_bitmap_weight(ptr noundef %25) #16
  br label %hwloc_get_nbobjs_inside_cpuset_by_type.exit

27:                                               ; preds = %20
  %28 = getelementptr inbounds nuw i8, ptr %0, i64 240
  %29 = load ptr, ptr %28, align 8, !tbaa !78
  %30 = getelementptr inbounds nuw i8, ptr %29, i64 128
  %31 = load ptr, ptr %30, align 8, !tbaa !79
  %32 = load ptr, ptr getelementptr inbounds nuw (i8, ptr @prte_rmaps_base, i64 304), align 8, !tbaa !109
  %33 = tail call i32 @hwloc_get_type_depth(ptr noundef %31, i32 noundef 2) #11
  switch i32 %33, label %35 [
    i32 -1, label %hwloc_get_nbobjs_inside_cpuset_by_type.exit
    i32 -2, label %34
  ]

34:                                               ; preds = %27
  br label %hwloc_get_nbobjs_inside_cpuset_by_type.exit

35:                                               ; preds = %27
  %36 = tail call ptr @hwloc_get_obj_by_depth(ptr noundef readonly %31, i32 noundef range(i32 0, -2) %33, i32 noundef 0) #16
  %.not.i.i = icmp eq ptr %36, null
  br i1 %.not.i.i, label %hwloc_get_nbobjs_inside_cpuset_by_type.exit, label %.preheader.i.i

.preheader.i.i:                                   ; preds = %35, %43
  %.017.i.i = phi i32 [ %.1.i.i, %43 ], [ 0, %35 ]
  %.01016.i.i = phi ptr [ %45, %43 ], [ %36, %35 ]
  %37 = getelementptr inbounds nuw i8, ptr %.01016.i.i, i64 184
  %38 = load ptr, ptr %37, align 8, !tbaa !111
  %39 = tail call i32 @hwloc_bitmap_iszero(ptr noundef %38) #16
  %.not14.i.i = icmp eq i32 %39, 0
  br i1 %.not14.i.i, label %40, label %43

40:                                               ; preds = %.preheader.i.i
  %41 = tail call i32 @hwloc_bitmap_isincluded(ptr noundef %38, ptr noundef readonly %32) #16
  %.not15.i.i = icmp ne i32 %41, 0
  %42 = zext i1 %.not15.i.i to i32
  %spec.select.i.i = add i32 %.017.i.i, %42
  br label %43

43:                                               ; preds = %40, %.preheader.i.i
  %.1.i.i = phi i32 [ %.017.i.i, %.preheader.i.i ], [ %spec.select.i.i, %40 ]
  %44 = getelementptr inbounds nuw i8, ptr %.01016.i.i, i64 56
  %45 = load ptr, ptr %44, align 8, !tbaa !117
  %.not13.i.i = icmp eq ptr %45, null
  br i1 %.not13.i.i, label %hwloc_get_nbobjs_inside_cpuset_by_type.exit, label %.preheader.i.i, !llvm.loop !118

hwloc_get_nbobjs_inside_cpuset_by_type.exit:      ; preds = %43, %35, %34, %27, %24
  %.0 = phi i32 [ %26, %24 ], [ -1, %34 ], [ 0, %27 ], [ 0, %35 ], [ %.1.i.i, %43 ]
  ret i32 %.0
}